target datalayout = "e-m:e-p270:32:32-p271:32:32-p272:64:64-i64:64-i128:128-f80:128-n8:16:32:64-S128"
target triple = "x86_64-unknown-linux-gnu"

%struct.clientBufferLimitsConfig = type { i64, i64, i64 }
%struct.redisServer = type { i32, i64, ptr, ptr, ptr, i32, i32, i32, i32, i32, ptr, ptr, ptr, ptr, ptr, ptr, i32, i32, i64, i32, i32, i32, i32, ptr, i32, i32, [41 x i8], i32, i64, i32, i32, i32, ptr, ptr, i32, i32, i64, ptr, ptr, ptr, ptr, [2 x i32], i32, i32, i32, i32, i32, [16 x ptr], i32, ptr, ptr, i32, [8 x %struct.connListener], i32, %struct.connListener, ptr, ptr, ptr, ptr, ptr, ptr, ptr, ptr, ptr, ptr, i32, ptr, i32, ptr, [3 x %struct.pause_event], [256 x i8], ptr, i64, i32, i32, i32, i32, i64, i32, i32, i32, i32, i32, i64, i64, i64, i64, i64, i64, i64, i64, i64, double, i64, i64, i64, i64, i64, i64, i64, i64, i64, i64, i64, i64, i64, i64, i64, i64, i64, i64, i64, i64, double, i64, i64, i64, i64, i64, ptr, i64, i64, i64, %struct.malloc_stats, i64, i64, i64, i64, i64, i64, i64, i64, i64, i64, i64, i64, double, [4 x i64], i64, i64, i64, i64, i64, i64, i64, i64, i64, i64, [7 x %struct.anon], i64, i64, i64, i64, i64, i64, [4 x %struct.durationStats], i32, i32, i32, i32, i32, i32, i32, i32, i32, i32, i64, i32, i32, i32, i32, i64, i64, i32, i32, i32, i32, i32, ptr, [3 x %struct.clientBufferLimitsConfig], i32, i32, ptr, i32, i32, i32, i32, ptr, ptr, i32, i32, i64, i64, i64, i64, i64, i32, i32, ptr, i32, i32, i64, i64, i64, i64, i64, i32, i32, i64, i32, i32, i32, i32, i32, i32, i32, i32, ptr, i32, i64, i64, i64, i64, ptr, i32, ptr, i32, i32, i32, i64, i64, i64, i64, i32, i32, i32, i32, i32, i32, ptr, i32, i32, ptr, i32, i32, i32, [2 x i32], i32, %struct.redisOpArray, i32, ptr, i32, ptr, i32, i32, i32, i32, i32, i32, i32, [41 x i8], [41 x i8], i64, i64, i64, i64, i32, i32, ptr, i64, i64, i64, i32, i32, i32, i32, i32, i32, i32, i64, ptr, ptr, ptr, ptr, i32, i32, ptr, ptr, i32, i32, i64, i64, i64, ptr, i32, ptr, i64, i32, i32, i32, i64, i32, i32, i32, i32, ptr, i32, i32, [41 x i8], i64, i32, ptr, i32, i32, i64, i64, i32, i32, i32, i32, i32, i64, [3 x i32], i32, i32, i32, [9 x i32], ptr, ptr, i32, i64, ptr, ptr, i32, i32, i32, i32, i64, i64, i64, i64, i64, i64, i64, i64, i64, i64, i32, i32, i64, i64, i32, i64, i64, i64, i64, i64, ptr, ptr, i32, ptr, i32, i32, i32, i64, i64, ptr, ptr, i32, i32, i32, i32, i32, ptr, ptr, ptr, i32, i32, i32, i32, i32, i32, i32, i64, i32, i64, i32, i32, i32, i32, i32, i32, i32, i64, ptr, ptr, i64, ptr, i32, %struct.aclInfo, i32, i64, i32, i32, i32, %struct.redisTLSContextConfig, ptr, ptr, ptr, ptr, ptr, i64, i32, ptr, i32, i32, i32, i64, i32, ptr }
%struct.connListener = type { [16 x i32], i32, ptr, i32, i32, ptr, ptr }
%struct.pause_event = type { i32, i64 }
%struct.malloc_stats = type { i64, i64, i64, i64, i64 }
%struct.anon = type { i64, i64, [16 x i64], i32 }
%struct.durationStats = type { i64, i64, i64 }
%struct.redisOpArray = type { ptr, i32, i32 }
%struct.aclInfo = type { i64, i64, i64, i64 }
%struct.redisTLSContextConfig = type { ptr, ptr, ptr, ptr, ptr, ptr, ptr, ptr, ptr, ptr, ptr, ptr, i32, i32, i32, i32 }

@server = external global %struct.redisServer, align 8
@.str.50 = private unnamed_addr constant [9 x i8] c"config.c\00", align 1
@.str.391 = private unnamed_addr constant [4 x i8] c"tcp\00", align 1
@.str.398 = private unnamed_addr constant [4 x i8] c"tls\00", align 1
@.str.409 = private unnamed_addr constant [21 x i8] c"tcp_listener != NULL\00", align 1
@.str.410 = private unnamed_addr constant [39 x i8] c"Failed to bind to specified addresses.\00", align 1
@.str.411 = private unnamed_addr constant [21 x i8] c"tls_listener != NULL\00", align 1

; Function Attrs: nounwind uwtable
define internal i32 @applyBind(ptr noundef %err) #0 {
entry:
  %retval = alloca i32, align 4
  %err.addr = alloca ptr, align 8
  %tcp_listener = alloca ptr, align 8
  %tls_listener = alloca ptr, align 8
  store ptr %err, ptr %err.addr, align 8
  %call = call ptr @listenerByType(ptr noundef @.str.391)
  store ptr %call, ptr %tcp_listener, align 8
  %call1 = call ptr @listenerByType(ptr noundef @.str.398)
  store ptr %call1, ptr %tls_listener, align 8
  %0 = load ptr, ptr %tcp_listener, align 8
  %cmp = icmp ne ptr %0, null
  %lnot = xor i1 %cmp, true
  %lnot2 = xor i1 %lnot, true
  %lnot.ext = zext i1 %lnot2 to i32
  %conv = sext i32 %lnot.ext to i64
  %tobool = icmp ne i64 %conv, 0
  br i1 %tobool, label %cond.true, label %cond.false

cond.true:                                        ; preds = %entry
  br label %cond.end

cond.false:                                       ; preds = %entry
  call void @_serverAssert(ptr noundef @.str.409, ptr noundef @.str.50, i32 noundef 2597)
  call void @abort() #11
  unreachable

1:                                                ; No predecessors!
  br label %cond.end

cond.end:                                         ; preds = %1, %cond.true
  %2 = load ptr, ptr %tcp_listener, align 8
  %bindaddr = getelementptr inbounds %struct.connListener, ptr %2, i32 0, i32 2
  store ptr getelementptr inbounds (%struct.redisServer, ptr @server, i32 0, i32 47), ptr %bindaddr, align 8
  %3 = load i32, ptr getelementptr inbounds (%struct.redisServer, ptr @server, i32 0, i32 48), align 8
  %4 = load ptr, ptr %tcp_listener, align 8
  %bindaddr_count = getelementptr inbounds %struct.connListener, ptr %4, i32 0, i32 3
  store i32 %3, ptr %bindaddr_count, align 8
  %5 = load i32, ptr getelementptr inbounds (%struct.redisServer, ptr @server, i32 0, i32 44), align 8
  %6 = load ptr, ptr %tcp_listener, align 8
  %port = getelementptr inbounds %struct.connListener, ptr %6, i32 0, i32 4
  store i32 %5, ptr %port, align 4
  %call3 = call ptr @connectionByType(ptr noundef @.str.391)
  %7 = load ptr, ptr %tcp_listener, align 8
  %ct = getelementptr inbounds %struct.connListener, ptr %7, i32 0, i32 5
  store ptr %call3, ptr %ct, align 8
  %8 = load ptr, ptr %tcp_listener, align 8
  %call4 = call i32 @changeListener(ptr noundef %8)
  %cmp5 = icmp eq i32 %call4, -1
  br i1 %cmp5, label %if.then, label %if.end9

if.then:                                          ; preds = %cond.end
  %9 = load ptr, ptr %err.addr, align 8
  store ptr @.str.410, ptr %9, align 8
  %10 = load ptr, ptr %tls_listener, align 8
  %tobool7 = icmp ne ptr %10, null
  br i1 %tobool7, label %if.then8, label %if.end

if.then8:                                         ; preds = %if.then
  %11 = load ptr, ptr %tls_listener, align 8
  call void @closeListener(ptr noundef %11)
  br label %if.end

if.end:                                           ; preds = %if.then8, %if.then
  store i32 0, ptr %retval, align 4
  br label %return

if.end9:                                          ; preds = %cond.end
  %12 = load i32, ptr getelementptr inbounds (%struct.redisServer, ptr @server, i32 0, i32 45), align 4
  %cmp10 = icmp ne i32 %12, 0
  br i1 %cmp10, label %if.then12, label %if.end34

if.then12:                                        ; preds = %if.end9
  %13 = load ptr, ptr %tls_listener, align 8
  %cmp13 = icmp ne ptr %13, null
  %lnot15 = xor i1 %cmp13, true
  %lnot17 = xor i1 %lnot15, true
  %lnot.ext18 = zext i1 %lnot17 to i32
  %conv19 = sext i32 %lnot.ext18 to i64
  %tobool20 = icmp ne i64 %conv19, 0
  br i1 %tobool20, label %cond.true21, label %cond.false22

cond.true21:                                      ; preds = %if.then12
  br label %cond.end23

cond.false22:                                     ; preds = %if.then12
  call void @_serverAssert(ptr noundef @.str.411, ptr noundef @.str.50, i32 noundef 2610)
  call void @abort() #11
  unreachable

14:                                               ; No predecessors!
  br label %cond.end23

cond.end23:                                       ; preds = %14, %cond.true21
  %15 = load ptr, ptr %tls_listener, align 8
  %bindaddr24 = getelementptr inbounds %struct.connListener, ptr %15, i32 0, i32 2
  store ptr getelementptr inbounds (%struct.redisServer, ptr @server, i32 0, i32 47), ptr %bindaddr24, align 8
  %16 = load i32, ptr getelementptr inbounds (%struct.redisServer, ptr @server, i32 0, i32 48), align 8
  %17 = load ptr, ptr %tls_listener, align 8
  %bindaddr_count25 = getelementptr inbounds %struct.connListener, ptr %17, i32 0, i32 3
  store i32 %16, ptr %bindaddr_count25, align 8
  %18 = load i32, ptr getelementptr inbounds (%struct.redisServer, ptr @server, i32 0, i32 45), align 4
  %19 = load ptr, ptr %tls_listener, align 8
  %port26 = getelementptr inbounds %struct.connListener, ptr %19, i32 0, i32 4
  store i32 %18, ptr %port26, align 4
  %call27 = call ptr @connectionByType(ptr noundef @.str.398)
  %20 = load ptr, ptr %tls_listener, align 8
  %ct28 = getelementptr inbounds %struct.connListener, ptr %20, i32 0, i32 5
  store ptr %call27, ptr %ct28, align 8
  %21 = load ptr, ptr %tls_listener, align 8
  %call29 = call i32 @changeListener(ptr noundef %21)
  %cmp30 = icmp eq i32 %call29, -1
  br i1 %cmp30, label %if.then32, label %if.end33

if.then32:                                        ; preds = %cond.end23
  %22 = load ptr, ptr %err.addr, align 8
  store ptr @.str.410, ptr %22, align 8
  %23 = load ptr, ptr %tcp_listener, align 8
  call void @closeListener(ptr noundef %23)
  store i32 0, ptr %retval, align 4
  br label %return

if.end33:                                         ; preds = %cond.end23
  br label %if.end34

if.end34:                                         ; preds = %if.end33, %if.end9
  store i32 1, ptr %retval, align 4
  br label %return

return:                                           ; preds = %if.end34, %if.then32, %if.end
  %24 = load i32, ptr %retval, align 4
  ret i32 %24
}