; Function Attrs: nounwind uwtable
define internal noundef i32 @applyBind(ptr nocapture noundef writeonly %err) #2 {
entry:
  %call = tail call ptr @listenerByType(ptr noundef nonnull @.str.391) #24
  %call1 = tail call ptr @listenerByType(ptr noundef nonnull @.str.398) #24
  %cmp.not = icmp eq ptr %call, null
  br i1 %cmp.not, label %cond.false, label %cond.end

cond.false:                                       ; preds = %entry
  tail call void @_serverAssert(ptr noundef nonnull @.str.409, ptr noundef nonnull @.str.50, i32 noundef 2597) #24
  tail call void @abort() #25
  unreachable

cond.end:                                         ; preds = %entry
  %bindaddr = getelementptr inbounds i8, ptr %call, i64 72
  store ptr getelementptr inbounds (%struct.redisServer, ptr @server, i64 0, i32 47), ptr %bindaddr, align 8
  %0 = load i32, ptr getelementptr inbounds (%struct.redisServer, ptr @server, i64 0, i32 48), align 8
  %bindaddr_count = getelementptr inbounds i8, ptr %call, i64 80
  store i32 %0, ptr %bindaddr_count, align 8
  %1 = load i32, ptr getelementptr inbounds (%struct.redisServer, ptr @server, i64 0, i32 44), align 8
  %port = getelementptr inbounds i8, ptr %call, i64 84
  store i32 %1, ptr %port, align 4
  %call3 = tail call ptr @connectionByType(ptr noundef nonnull @.str.391) #24
  %ct = getelementptr inbounds i8, ptr %call, i64 88
  store ptr %call3, ptr %ct, align 8
  %call4 = tail call i32 @changeListener(ptr noundef nonnull %call) #24
  %cmp5 = icmp eq i32 %call4, -1
  br i1 %cmp5, label %if.then, label %if.end9

if.then:                                          ; preds = %cond.end
  store ptr @.str.410, ptr %err, align 8
  %tobool7.not = icmp eq ptr %call1, null
  br i1 %tobool7.not, label %return, label %return.sink.split

if.end9:                                          ; preds = %cond.end
  %2 = load i32, ptr getelementptr inbounds (%struct.redisServer, ptr @server, i64 0, i32 45), align 4
  %cmp10.not = icmp eq i32 %2, 0
  br i1 %cmp10.not, label %return, label %if.then12

if.then12:                                        ; preds = %if.end9
  %cmp13.not = icmp eq ptr %call1, null
  br i1 %cmp13.not, label %cond.false22, label %cond.end23

cond.false22:                                     ; preds = %if.then12
  tail call void @_serverAssert(ptr noundef nonnull @.str.411, ptr noundef nonnull @.str.50, i32 noundef 2610) #24
  tail call void @abort() #25
  unreachable

cond.end23:                                       ; preds = %if.then12
  %bindaddr24 = getelementptr inbounds i8, ptr %call1, i64 72
  store ptr getelementptr inbounds (%struct.redisServer, ptr @server, i64 0, i32 47), ptr %bindaddr24, align 8
  %3 = load i32, ptr getelementptr inbounds (%struct.redisServer, ptr @server, i64 0, i32 48), align 8
  %bindaddr_count25 = getelementptr inbounds i8, ptr %call1, i64 80
  store i32 %3, ptr %bindaddr_count25, align 8
  %4 = load i32, ptr getelementptr inbounds (%struct.redisServer, ptr @server, i64 0, i32 45), align 4
  %port26 = getelementptr inbounds i8, ptr %call1, i64 84
  store i32 %4, ptr %port26, align 4
  %call27 = tail call ptr @connectionByType(ptr noundef nonnull @.str.398) #24
  %ct28 = getelementptr inbounds i8, ptr %call1, i64 88
  store ptr %call27, ptr %ct28, align 8
  %call29 = tail call i32 @changeListener(ptr noundef nonnull %call1) #24
  %cmp30 = icmp eq i32 %call29, -1
  br i1 %cmp30, label %if.then32, label %return

if.then32:                                        ; preds = %cond.end23
  store ptr @.str.410, ptr %err, align 8
  br label %return.sink.split

return.sink.split:                                ; preds = %if.then, %if.then32
  %call1.sink = phi ptr [ %call, %if.then32 ], [ %call1, %if.then ]
  tail call void @closeListener(ptr noundef nonnull %call1.sink) #24
  br label %return

return:                                           ; preds = %return.sink.split, %if.end9, %cond.end23, %if.then
  %retval.0 = phi i32 [ 0, %if.then ], [ 1, %cond.end23 ], [ 1, %if.end9 ], [ 0, %return.sink.split ]
  ret i32 %retval.0
}